target datalayout = "e-m:e-p270:32:32-p271:32:32-p272:64:64-i64:64-i128:128-f80:128-n8:16:32:64-S128"
target triple = "x86_64-pc-linux-gnu"

%"class.std::__cxx11::basic_string" = type { %"struct.std::__cxx11::basic_string<char>::_Alloc_hider", i64, %union.anon }
%"struct.std::__cxx11::basic_string<char>::_Alloc_hider" = type { ptr }
%union.anon = type { i64, [8 x i8] }
%"struct.rocksdb::BlockCacheTraceRecord" = type <{ i64, %"class.std::__cxx11::basic_string", i8, [7 x i8], i64, i64, %"class.std::__cxx11::basic_string", i32, [4 x i8], i64, i8, i8, i8, [5 x i8], i64, i8, [7 x i8], %"class.std::__cxx11::basic_string", i64, i64, i8, [7 x i8] }>

; Function Attrs: mustprogress nounwind uwtable
define noundef i32 @_ZNK7rocksdb25PrioritizedCacheSimulator20ComputeBlockPriorityERKNS_21BlockCacheTraceRecordE(ptr noundef nonnull align 8 dereferenceable(160) %0, ptr noundef nonnull align 8 dereferenceable(185) %1) #3 align 2 {
  %3 = alloca i32, align 4
  %4 = alloca ptr, align 8
  %5 = alloca ptr, align 8
  store ptr %0, ptr %4, align 8, !tbaa !80
  store ptr %1, ptr %5, align 8, !tbaa !54
  %6 = load ptr, ptr %5, align 8, !tbaa !54
  %7 = getelementptr inbounds nuw %"struct.rocksdb::BlockCacheTraceRecord", ptr %6, i32 0, i32 2
  %8 = load i8, ptr %7, align 8, !tbaa !82
  %9 = sext i8 %8 to i32
  %10 = icmp eq i32 %9, 8
  br i1 %10, label %23, label %11

11:                                               ; preds = %2
  %12 = load ptr, ptr %5, align 8, !tbaa !54
  %13 = getelementptr inbounds nuw %"struct.rocksdb::BlockCacheTraceRecord", ptr %12, i32 0, i32 2
  %14 = load i8, ptr %13, align 8, !tbaa !82
  %15 = sext i8 %14 to i32
  %16 = icmp eq i32 %15, 7
  br i1 %16, label %23, label %17

17:                                               ; preds = %11
  %18 = load ptr, ptr %5, align 8, !tbaa !54
  %19 = getelementptr inbounds nuw %"struct.rocksdb::BlockCacheTraceRecord", ptr %18, i32 0, i32 2
  %20 = load i8, ptr %19, align 8, !tbaa !82
  %21 = sext i8 %20 to i32
  %22 = icmp eq i32 %21, 10
  br i1 %22, label %23, label %24

23:                                               ; preds = %17, %11, %2
  store i32 0, ptr %3, align 4
  br label %25

24:                                               ; preds = %17
  store i32 1, ptr %3, align 4
  br label %25

25:                                               ; preds = %24, %23
  %26 = load i32, ptr %3, align 4
  ret i32 %26
}