; Function Attrs: mustprogress nofree norecurse nosync nounwind willreturn memory(argmem: read) uwtable
define noundef range(i32 0, 2) i32 @_ZNK7rocksdb25PrioritizedCacheSimulator20ComputeBlockPriorityERKNS_21BlockCacheTraceRecordE(ptr noundef nonnull readnone align 8 captures(none) dereferenceable(160) %0, ptr noundef nonnull readonly align 8 captures(none) dereferenceable(185) %1) local_unnamed_addr #6 align 2 {
  %3 = getelementptr inbounds nuw i8, ptr %1, i64 40
  %4 = load i8, ptr %3, align 8, !tbaa !65
  %switch.tableidx = add i8 %4, -7
  %5 = icmp ult i8 %switch.tableidx, 4
  br i1 %5, label %switch.lookup, label %7

switch.lookup:                                    ; preds = %2
  %6 = zext nneg i8 %switch.tableidx to i64
  %switch.gep = getelementptr inbounds nuw [4 x i32], ptr @switch.table._ZN7rocksdb28HybridRowBlockCacheSimulator6AccessERKNS_21BlockCacheTraceRecordE.1, i64 0, i64 %6
  %switch.load = load i32, ptr %switch.gep, align 4
  br label %7

7:                                                ; preds = %2, %switch.lookup
  %.0 = phi i32 [ %switch.load, %switch.lookup ], [ 1, %2 ]
  ret i32 %.0
}